target datalayout = "e-m:e-p270:32:32-p271:32:32-p272:64:64-i64:64-i128:128-f80:128-n8:16:32:64-S128"
target triple = "x86_64-pc-linux-gnu"

%struct._object = type { %union.anon.41, ptr }
%union.anon.41 = type { i64 }
%struct.PyVarObject = type { %struct._object, i64 }
%struct.PyASCIIObject = type { %struct._object, i64, i64, %struct.anon.46 }
%struct.anon.46 = type { i16, i16 }
%struct._typeobject = type { %struct.PyVarObject, ptr, i64, i64, ptr, i64, ptr, ptr, ptr, ptr, ptr, ptr, ptr, ptr, ptr, ptr, ptr, ptr, ptr, i64, ptr, ptr, ptr, ptr, i64, ptr, ptr, ptr, ptr, ptr, ptr, ptr, ptr, ptr, i64, ptr, ptr, ptr, ptr, ptr, ptr, ptr, ptr, ptr, ptr, ptr, i32, ptr, ptr, i8, i16 }
%struct.anon.42 = type { i32, i32 }
%struct.SubString = type { ptr, i64, i64 }
%struct.MarkupIterator = type { %struct.SubString }
%struct.formatteriterobject = type { %struct._object, ptr, %struct.MarkupIterator }

@PyExc_TypeError = external global ptr, align 8
@.str.353 = private unnamed_addr constant [21 x i8] c"expected str, got %s\00", align 1

; Function Attrs: inlinehint nounwind uwtable
define internal void @SubString_init(ptr noundef %0, ptr noundef %1, i64 noundef %2, i64 noundef %3) #2 {
  %5 = alloca ptr, align 8
  %6 = alloca ptr, align 8
  %7 = alloca i64, align 8
  %8 = alloca i64, align 8
  store ptr %0, ptr %5, align 8, !tbaa !180
  store ptr %1, ptr %6, align 8, !tbaa !4
  store i64 %2, ptr %7, align 8, !tbaa !185
  store i64 %3, ptr %8, align 8, !tbaa !185
  %9 = load ptr, ptr %6, align 8, !tbaa !4
  %10 = load ptr, ptr %5, align 8, !tbaa !180
  %11 = getelementptr inbounds nuw %struct.SubString, ptr %10, i32 0, i32 0
  store ptr %9, ptr %11, align 8, !tbaa !771
  %12 = load i64, ptr %7, align 8, !tbaa !185
  %13 = load ptr, ptr %5, align 8, !tbaa !180
  %14 = getelementptr inbounds nuw %struct.SubString, ptr %13, i32 0, i32 1
  store i64 %12, ptr %14, align 8, !tbaa !773
  %15 = load i64, ptr %8, align 8, !tbaa !185
  %16 = load ptr, ptr %5, align 8, !tbaa !180
  %17 = getelementptr inbounds nuw %struct.SubString, ptr %16, i32 0, i32 2
  store i64 %15, ptr %17, align 8, !tbaa !774
  ret void
}

; Function Attrs: alwaysinline nounwind uwtable
define internal void @Py_INCREF(ptr noundef %0) #9 {
  %2 = alloca ptr, align 8
  %3 = alloca i32, align 4
  %4 = alloca i32, align 4
  store ptr %0, ptr %2, align 8, !tbaa !4
  call void @llvm.lifetime.start.p0(i64 4, ptr %3) #12
  %5 = load ptr, ptr %2, align 8, !tbaa !4
  %6 = getelementptr inbounds nuw %struct._object, ptr %5, i32 0, i32 0
  %7 = getelementptr inbounds nuw %struct.anon.42, ptr %6, i32 0, i32 0
  %8 = load i32, ptr %7, align 8, !tbaa !191
  store i32 %8, ptr %3, align 4, !tbaa !190
  %9 = load i32, ptr %3, align 4, !tbaa !190
  %10 = icmp slt i32 %9, 0
  br i1 %10, label %11, label %12

11:                                               ; preds = %1
  store i32 1, ptr %4, align 4
  br label %18

12:                                               ; preds = %1
  %13 = load i32, ptr %3, align 4, !tbaa !190
  %14 = add i32 %13, 1
  %15 = load ptr, ptr %2, align 8, !tbaa !4
  %16 = getelementptr inbounds nuw %struct._object, ptr %15, i32 0, i32 0
  %17 = getelementptr inbounds nuw %struct.anon.42, ptr %16, i32 0, i32 0
  store i32 %14, ptr %17, align 8, !tbaa !191
  store i32 0, ptr %4, align 4
  br label %18

18:                                               ; preds = %12, %11
  call void @llvm.lifetime.end.p0(i64 4, ptr %3) #12
  %19 = load i32, ptr %4, align 4
  switch i32 %19, label %21 [
    i32 0, label %20
    i32 1, label %20
  ]

20:                                               ; preds = %18, %18
  ret void

21:                                               ; preds = %18
  unreachable
}

; Function Attrs: nounwind uwtable
define internal i32 @MarkupIterator_init(ptr noundef %0, ptr noundef %1, i64 noundef %2, i64 noundef %3) #0 {
  %5 = alloca ptr, align 8
  %6 = alloca ptr, align 8
  %7 = alloca i64, align 8
  %8 = alloca i64, align 8
  store ptr %0, ptr %5, align 8, !tbaa !180
  store ptr %1, ptr %6, align 8, !tbaa !4
  store i64 %2, ptr %7, align 8, !tbaa !185
  store i64 %3, ptr %8, align 8, !tbaa !185
  %9 = load ptr, ptr %5, align 8, !tbaa !180
  %10 = getelementptr inbounds nuw %struct.MarkupIterator, ptr %9, i32 0, i32 0
  %11 = load ptr, ptr %6, align 8, !tbaa !4
  %12 = load i64, ptr %7, align 8, !tbaa !185
  %13 = load i64, ptr %8, align 8, !tbaa !185
  call void @SubString_init(ptr noundef %10, ptr noundef %11, i64 noundef %12, i64 noundef %13)
  ret i32 1
}

; Function Attrs: inlinehint nounwind uwtable
define internal i64 @PyUnicode_GET_LENGTH(ptr noundef %0) #2 {
  %2 = alloca ptr, align 8
  store ptr %0, ptr %2, align 8, !tbaa !4
  %3 = load ptr, ptr %2, align 8, !tbaa !4
  %4 = getelementptr inbounds nuw %struct.PyASCIIObject, ptr %3, i32 0, i32 1
  %5 = load i64, ptr %4, align 8, !tbaa !194
  ret i64 %5
}

; Function Attrs: inlinehint nounwind uwtable
define internal ptr @_Py_NewRef(ptr noundef %0) #2 {
  %2 = alloca ptr, align 8
  store ptr %0, ptr %2, align 8, !tbaa !4
  %3 = load ptr, ptr %2, align 8, !tbaa !4
  call void @Py_INCREF(ptr noundef %3)
  %4 = load ptr, ptr %2, align 8, !tbaa !4
  ret ptr %4
}

; Function Attrs: inlinehint nounwind uwtable
define internal i32 @PyType_HasFeature(ptr noundef %0, i64 noundef %1) #2 {
  %3 = alloca ptr, align 8
  %4 = alloca i64, align 8
  %5 = alloca i64, align 8
  store ptr %0, ptr %3, align 8, !tbaa !196
  store i64 %1, ptr %4, align 8, !tbaa !185
  call void @llvm.lifetime.start.p0(i64 8, ptr %5) #12
  %6 = load ptr, ptr %3, align 8, !tbaa !196
  %7 = getelementptr inbounds nuw %struct._typeobject, ptr %6, i32 0, i32 19
  %8 = load i64, ptr %7, align 8, !tbaa !197
  store i64 %8, ptr %5, align 8, !tbaa !185
  %9 = load i64, ptr %5, align 8, !tbaa !185
  %10 = load i64, ptr %4, align 8, !tbaa !185
  %11 = and i64 %9, %10
  %12 = icmp ne i64 %11, 0
  %13 = zext i1 %12 to i32
  call void @llvm.lifetime.end.p0(i64 8, ptr %5) #12
  ret i32 %13
}

; Function Attrs: inlinehint nounwind uwtable
define internal ptr @_Py_TYPE(ptr noundef %0) #2 {
  %2 = alloca ptr, align 8
  store ptr %0, ptr %2, align 8, !tbaa !4
  %3 = load ptr, ptr %2, align 8, !tbaa !4
  %4 = getelementptr inbounds nuw %struct._object, ptr %3, i32 0, i32 1
  %5 = load ptr, ptr %4, align 8, !tbaa !202
  ret ptr %5
}

; Function Attrs: nounwind uwtable
define internal ptr @formatter_parser(ptr noundef %0, ptr noundef %1) #0 {
  %3 = alloca ptr, align 8
  %4 = alloca ptr, align 8
  %5 = alloca ptr, align 8
  %6 = alloca ptr, align 8
  %7 = alloca i32, align 4
  store ptr %0, ptr %4, align 8, !tbaa !4
  store ptr %1, ptr %5, align 8, !tbaa !4
  call void @llvm.lifetime.start.p0(i64 8, ptr %6) #12
  %8 = load ptr, ptr %5, align 8, !tbaa !4
  %9 = call ptr @_Py_TYPE(ptr noundef %8)
  %10 = call i32 @PyType_HasFeature(ptr noundef %9, i64 noundef 268435456)
  %11 = icmp ne i32 %10, 0
  br i1 %11, label %19, label %12

12:                                               ; preds = %2
  %13 = load ptr, ptr @PyExc_TypeError, align 8, !tbaa !4
  %14 = load ptr, ptr %5, align 8, !tbaa !4
  %15 = call ptr @_Py_TYPE(ptr noundef %14)
  %16 = getelementptr inbounds nuw %struct._typeobject, ptr %15, i32 0, i32 1
  %17 = load ptr, ptr %16, align 8, !tbaa !284
  %18 = call ptr (ptr, ptr, ...) @PyErr_Format(ptr noundef %13, ptr noundef @.str.353, ptr noundef %17)
  store ptr null, ptr %3, align 8
  store i32 1, ptr %7, align 4
  br label %36

19:                                               ; preds = %2
  %20 = call ptr @_PyObject_New(ptr noundef @PyFormatterIter_Type)
  store ptr %20, ptr %6, align 8, !tbaa !180
  %21 = load ptr, ptr %6, align 8, !tbaa !180
  %22 = icmp eq ptr %21, null
  br i1 %22, label %23, label %24

23:                                               ; preds = %19
  store ptr null, ptr %3, align 8
  store i32 1, ptr %7, align 4
  br label %36

24:                                               ; preds = %19
  %25 = load ptr, ptr %5, align 8, !tbaa !4
  %26 = call ptr @_Py_NewRef(ptr noundef %25)
  %27 = load ptr, ptr %6, align 8, !tbaa !180
  %28 = getelementptr inbounds nuw %struct.formatteriterobject, ptr %27, i32 0, i32 1
  store ptr %26, ptr %28, align 8, !tbaa !800
  %29 = load ptr, ptr %6, align 8, !tbaa !180
  %30 = getelementptr inbounds nuw %struct.formatteriterobject, ptr %29, i32 0, i32 2
  %31 = load ptr, ptr %5, align 8, !tbaa !4
  %32 = load ptr, ptr %5, align 8, !tbaa !4
  %33 = call i64 @PyUnicode_GET_LENGTH(ptr noundef %32)
  %34 = call i32 @MarkupIterator_init(ptr noundef %30, ptr noundef %31, i64 noundef 0, i64 noundef %33)
  %35 = load ptr, ptr %6, align 8, !tbaa !180
  store ptr %35, ptr %3, align 8
  store i32 1, ptr %7, align 4
  br label %36

36:                                               ; preds = %24, %23, %12
  call void @llvm.lifetime.end.p0(i64 8, ptr %6) #12
  %37 = load ptr, ptr %3, align 8
  ret ptr %37
}