; Function Attrs: nounwind uwtable
define internal ptr @formatter_parser(ptr readnone captures(none) %0, ptr noundef %1) #0 {
  %3 = getelementptr i8, ptr %1, i64 8
  %.val11 = load ptr, ptr %3, align 8, !tbaa !187
  %4 = getelementptr i8, ptr %.val11, i64 168
  %.val12 = load i64, ptr %4, align 8, !tbaa !188
  %5 = and i64 %.val12, 268435456
  %.not = icmp eq i64 %5, 0
  br i1 %.not, label %6, label %11

6:                                                ; preds = %2
  %7 = load ptr, ptr @PyExc_TypeError, align 8, !tbaa !183
  %8 = getelementptr inbounds nuw i8, ptr %.val11, i64 24
  %9 = load ptr, ptr %8, align 8, !tbaa !267
  %10 = tail call ptr (ptr, ptr, ...) @PyErr_Format(ptr noundef %7, ptr noundef nonnull @.str.353, ptr noundef %9) #41
  br label %24

11:                                               ; preds = %2
  %12 = tail call ptr @_PyObject_New(ptr noundef nonnull @PyFormatterIter_Type) #41
  %13 = icmp eq ptr %12, null
  br i1 %13, label %24, label %14

14:                                               ; preds = %11
  %15 = load i32, ptr %1, align 8, !tbaa !195
  %16 = icmp slt i32 %15, 0
  br i1 %16, label %_Py_NewRef.exit, label %17

17:                                               ; preds = %14
  %18 = add nuw i32 %15, 1
  store i32 %18, ptr %1, align 8, !tbaa !195
  br label %_Py_NewRef.exit

_Py_NewRef.exit:                                  ; preds = %14, %17
  %19 = getelementptr inbounds nuw i8, ptr %12, i64 16
  store ptr %1, ptr %19, align 8, !tbaa !715
  %20 = getelementptr inbounds nuw i8, ptr %12, i64 24
  %21 = getelementptr i8, ptr %1, i64 16
  %.val13 = load i64, ptr %21, align 8, !tbaa !197
  store ptr %1, ptr %20, align 8, !tbaa !671
  %22 = getelementptr inbounds nuw i8, ptr %12, i64 32
  store i64 0, ptr %22, align 8, !tbaa !673
  %23 = getelementptr inbounds nuw i8, ptr %12, i64 40
  store i64 %.val13, ptr %23, align 8, !tbaa !674
  br label %24

24:                                               ; preds = %11, %_Py_NewRef.exit, %6
  %.0 = phi ptr [ %12, %_Py_NewRef.exit ], [ null, %6 ], [ null, %11 ]
  ret ptr %.0
}